target datalayout = "e-m:e-p270:32:32-p271:32:32-p272:64:64-i64:64-i128:128-f80:128-n8:16:32:64-S128"
target triple = "x86_64-pc-linux-gnu"

@.str.1 = private unnamed_addr constant [27 x i8] c"../openssl/apps/lib/apps.c\00", align 1
@bio_err = external global ptr, align 8
@stdin = external global ptr, align 8
@.str.116 = private unnamed_addr constant [2 x i8] c"r\00", align 1
@.str.123 = private unnamed_addr constant [2 x i8] c"w\00", align 1
@.str.165 = private unnamed_addr constant [2 x i8] c"-\00", align 1
@.str.196 = private unnamed_addr constant [6 x i8] c"stdin\00", align 1
@.str.218 = private unnamed_addr constant [60 x i8] c"assertion failed: mode == 'a' || mode == 'r' || mode == 'w'\00", align 1
@.str.219 = private unnamed_addr constant [2 x i8] c"a\00", align 1
@.str.220 = private unnamed_addr constant [3 x i8] c"ab\00", align 1
@.str.221 = private unnamed_addr constant [3 x i8] c"rb\00", align 1
@.str.222 = private unnamed_addr constant [3 x i8] c"wb\00", align 1
@.str.223 = private unnamed_addr constant [19 x i8] c"Can't open %s, %s\0A\00", align 1
@.str.224 = private unnamed_addr constant [7 x i8] c"stdout\00", align 1
@.str.225 = private unnamed_addr constant [28 x i8] c"Can't open \22%s\22 for %s, %s\0A\00", align 1
@.str.226 = private unnamed_addr constant [10 x i8] c"appending\00", align 1
@.str.227 = private unnamed_addr constant [8 x i8] c"reading\00", align 1
@.str.228 = private unnamed_addr constant [8 x i8] c"writing\00", align 1
@.str.229 = private unnamed_addr constant [18 x i8] c"(doing something)\00", align 1

; Function Attrs: nounwind uwtable
define internal ptr @modeverb(i8 noundef signext %0) #0 {
  %2 = alloca ptr, align 8
  %3 = alloca i8, align 1
  store i8 %0, ptr %3, align 1, !tbaa !11
  %4 = load i8, ptr %3, align 1, !tbaa !11
  %5 = sext i8 %4 to i32
  switch i32 %5, label %9 [
    i32 97, label %6
    i32 114, label %7
    i32 119, label %8
  ]

6:                                                ; preds = %1
  store ptr @.str.226, ptr %2, align 8
  br label %10

7:                                                ; preds = %1
  store ptr @.str.227, ptr %2, align 8
  br label %10

8:                                                ; preds = %1
  store ptr @.str.228, ptr %2, align 8
  br label %10

9:                                                ; preds = %1
  store ptr @.str.229, ptr %2, align 8
  br label %10

10:                                               ; preds = %9, %8, %7, %6
  %11 = load ptr, ptr %2, align 8
  ret ptr %11
}

; Function Attrs: nounwind uwtable
define internal ptr @modestr(i8 noundef signext %0, i32 noundef %1) #0 {
  %3 = alloca ptr, align 8
  %4 = alloca i8, align 1
  %5 = alloca i32, align 4
  store i8 %0, ptr %4, align 1, !tbaa !11
  store i32 %1, ptr %5, align 4, !tbaa !25
  %6 = load i8, ptr %4, align 1, !tbaa !11
  %7 = sext i8 %6 to i32
  %8 = icmp eq i32 %7, 97
  br i1 %8, label %17, label %9

9:                                                ; preds = %2
  %10 = load i8, ptr %4, align 1, !tbaa !11
  %11 = sext i8 %10 to i32
  %12 = icmp eq i32 %11, 114
  br i1 %12, label %17, label %13

13:                                               ; preds = %9
  %14 = load i8, ptr %4, align 1, !tbaa !11
  %15 = sext i8 %14 to i32
  %16 = icmp eq i32 %15, 119
  br i1 %16, label %17, label %18

17:                                               ; preds = %13, %9, %2
  br label %20

18:                                               ; preds = %13
  call void @OPENSSL_die(ptr noundef @.str.218, ptr noundef @.str.1, i32 noundef 3091) #16
  unreachable

19:                                               ; No predecessors!
  br label %20

20:                                               ; preds = %19, %17
  %21 = load i8, ptr %4, align 1, !tbaa !11
  %22 = sext i8 %21 to i32
  switch i32 %22, label %38 [
    i32 97, label %23
    i32 114, label %28
    i32 119, label %33
  ]

23:                                               ; preds = %20
  %24 = load i32, ptr %5, align 4, !tbaa !25
  %25 = call i32 @FMT_istext(i32 noundef %24)
  %26 = icmp ne i32 %25, 0
  %27 = select i1 %26, ptr @.str.219, ptr @.str.220
  store ptr %27, ptr %3, align 8
  br label %39

28:                                               ; preds = %20
  %29 = load i32, ptr %5, align 4, !tbaa !25
  %30 = call i32 @FMT_istext(i32 noundef %29)
  %31 = icmp ne i32 %30, 0
  %32 = select i1 %31, ptr @.str.116, ptr @.str.221
  store ptr %32, ptr %3, align 8
  br label %39

33:                                               ; preds = %20
  %34 = load i32, ptr %5, align 4, !tbaa !25
  %35 = call i32 @FMT_istext(i32 noundef %34)
  %36 = icmp ne i32 %35, 0
  %37 = select i1 %36, ptr @.str.123, ptr @.str.222
  store ptr %37, ptr %3, align 8
  br label %39

38:                                               ; preds = %20
  store ptr null, ptr %3, align 8
  br label %39

39:                                               ; preds = %38, %33, %28, %23
  %40 = load ptr, ptr %3, align 8
  ret ptr %40
}

; Function Attrs: nounwind uwtable
define dso_local ptr @dup_bio_in(i32 noundef %0) #0 {
  %2 = alloca i32, align 4
  store i32 %0, ptr %2, align 4, !tbaa !25
  %3 = load ptr, ptr @stdin, align 8, !tbaa !41
  %4 = load i32, ptr %2, align 4, !tbaa !25
  %5 = call i32 @FMT_istext(i32 noundef %4)
  %6 = icmp ne i32 %5, 0
  %7 = select i1 %6, i32 16, i32 0
  %8 = or i32 0, %7
  %9 = call ptr @BIO_new_fp(ptr noundef %3, i32 noundef %8)
  ret ptr %9
}

; Function Attrs: nounwind uwtable
define internal ptr @bio_open_default_(ptr noundef %0, i8 noundef signext %1, i32 noundef %2, i32 noundef %3) #0 {
  %5 = alloca ptr, align 8
  %6 = alloca ptr, align 8
  %7 = alloca i8, align 1
  %8 = alloca i32, align 4
  %9 = alloca i32, align 4
  %10 = alloca ptr, align 8
  %11 = alloca i32, align 4
  store ptr %0, ptr %6, align 8, !tbaa !9
  store i8 %1, ptr %7, align 1, !tbaa !11
  store i32 %2, ptr %8, align 4, !tbaa !25
  store i32 %3, ptr %9, align 4, !tbaa !25
  call void @llvm.lifetime.start.p0(i64 8, ptr %10) #12
  %12 = load ptr, ptr %6, align 8, !tbaa !9
  %13 = icmp eq ptr %12, null
  br i1 %13, label %18, label %14

14:                                               ; preds = %4
  %15 = load ptr, ptr %6, align 8, !tbaa !9
  %16 = call i32 @strcmp(ptr noundef %15, ptr noundef @.str.165) #14
  %17 = icmp eq i32 %16, 0
  br i1 %17, label %18, label %49

18:                                               ; preds = %14, %4
  %19 = load i8, ptr %7, align 1, !tbaa !11
  %20 = sext i8 %19 to i32
  %21 = icmp eq i32 %20, 114
  br i1 %21, label %22, label %25

22:                                               ; preds = %18
  %23 = load i32, ptr %8, align 4, !tbaa !25
  %24 = call ptr @dup_bio_in(i32 noundef %23)
  br label %28

25:                                               ; preds = %18
  %26 = load i32, ptr %8, align 4, !tbaa !25
  %27 = call ptr @dup_bio_out(i32 noundef %26)
  br label %28

28:                                               ; preds = %25, %22
  %29 = phi ptr [ %24, %22 ], [ %27, %25 ]
  store ptr %29, ptr %10, align 8, !tbaa !35
  %30 = load i32, ptr %9, align 4, !tbaa !25
  %31 = icmp ne i32 %30, 0
  br i1 %31, label %32, label %34

32:                                               ; preds = %28
  call void @ERR_clear_error()
  %33 = load ptr, ptr %10, align 8, !tbaa !35
  store ptr %33, ptr %5, align 8
  store i32 1, ptr %11, align 4
  br label %75

34:                                               ; preds = %28
  %35 = load ptr, ptr %10, align 8, !tbaa !35
  %36 = icmp ne ptr %35, null
  br i1 %36, label %37, label %39

37:                                               ; preds = %34
  %38 = load ptr, ptr %10, align 8, !tbaa !35
  store ptr %38, ptr %5, align 8
  store i32 1, ptr %11, align 4
  br label %75

39:                                               ; preds = %34
  %40 = load ptr, ptr @bio_err, align 8, !tbaa !35
  %41 = load i8, ptr %7, align 1, !tbaa !11
  %42 = sext i8 %41 to i32
  %43 = icmp eq i32 %42, 114
  %44 = select i1 %43, ptr @.str.196, ptr @.str.224
  %45 = call ptr @__errno_location() #13
  %46 = load i32, ptr %45, align 4, !tbaa !25
  %47 = call ptr @strerror(i32 noundef %46) #12
  %48 = call i32 (ptr, ptr, ...) @BIO_printf(ptr noundef %40, ptr noundef @.str.223, ptr noundef %44, ptr noundef %47)
  br label %73

49:                                               ; preds = %14
  %50 = load ptr, ptr %6, align 8, !tbaa !9
  %51 = load i8, ptr %7, align 1, !tbaa !11
  %52 = load i32, ptr %8, align 4, !tbaa !25
  %53 = call ptr @modestr(i8 noundef signext %51, i32 noundef %52)
  %54 = call ptr @BIO_new_file(ptr noundef %50, ptr noundef %53)
  store ptr %54, ptr %10, align 8, !tbaa !35
  %55 = load i32, ptr %9, align 4, !tbaa !25
  %56 = icmp ne i32 %55, 0
  br i1 %56, label %57, label %59

57:                                               ; preds = %49
  call void @ERR_clear_error()
  %58 = load ptr, ptr %10, align 8, !tbaa !35
  store ptr %58, ptr %5, align 8
  store i32 1, ptr %11, align 4
  br label %75

59:                                               ; preds = %49
  %60 = load ptr, ptr %10, align 8, !tbaa !35
  %61 = icmp ne ptr %60, null
  br i1 %61, label %62, label %64

62:                                               ; preds = %59
  %63 = load ptr, ptr %10, align 8, !tbaa !35
  store ptr %63, ptr %5, align 8
  store i32 1, ptr %11, align 4
  br label %75

64:                                               ; preds = %59
  %65 = load ptr, ptr @bio_err, align 8, !tbaa !35
  %66 = load ptr, ptr %6, align 8, !tbaa !9
  %67 = load i8, ptr %7, align 1, !tbaa !11
  %68 = call ptr @modeverb(i8 noundef signext %67)
  %69 = call ptr @__errno_location() #13
  %70 = load i32, ptr %69, align 4, !tbaa !25
  %71 = call ptr @strerror(i32 noundef %70) #12
  %72 = call i32 (ptr, ptr, ...) @BIO_printf(ptr noundef %65, ptr noundef @.str.225, ptr noundef %66, ptr noundef %68, ptr noundef %71)
  br label %73

73:                                               ; preds = %64, %39
  %74 = load ptr, ptr @bio_err, align 8, !tbaa !35
  call void @ERR_print_errors(ptr noundef %74)
  store ptr null, ptr %5, align 8
  store i32 1, ptr %11, align 4
  br label %75

75:                                               ; preds = %73, %62, %57, %37, %32
  call void @llvm.lifetime.end.p0(i64 8, ptr %10) #12
  %76 = load ptr, ptr %5, align 8
  ret ptr %76
}