; Function Attrs: nounwind uwtable
define internal fastcc ptr @bio_open_default_(ptr noundef %0, i8 noundef signext %1, i32 noundef %2, i32 noundef %3) unnamed_addr #0 {
  %5 = icmp eq ptr %0, null
  br i1 %5, label %10, label %sub_0

sub_0:                                            ; preds = %4
  %6 = load i8, ptr %0, align 1
  %.not27 = icmp eq i8 %6, 45
  br i1 %.not27, label %.tail, label %.tail.thread

.tail:                                            ; preds = %sub_0
  %7 = getelementptr inbounds nuw i8, ptr %0, i64 1
  %8 = load i8, ptr %7, align 1
  %9 = icmp eq i8 %8, 0
  br i1 %9, label %10, label %.tail.thread

10:                                               ; preds = %.tail, %4
  %11 = icmp eq i8 %1, 114
  br i1 %11, label %12, label %17

12:                                               ; preds = %10
  %13 = load ptr, ptr @stdin, align 8, !tbaa !28
  %14 = tail call i32 @FMT_istext(i32 noundef %2) #27
  %.not.i = icmp eq i32 %14, 0
  %15 = select i1 %.not.i, i32 0, i32 16
  %16 = tail call ptr @BIO_new_fp(ptr noundef %13, i32 noundef %15) #27
  br label %19

17:                                               ; preds = %10
  %18 = tail call ptr @dup_bio_out(i32 noundef %2)
  br label %19

19:                                               ; preds = %17, %12
  %20 = phi ptr [ %16, %12 ], [ %18, %17 ]
  %.not23 = icmp eq i32 %3, 0
  br i1 %.not23, label %22, label %21

21:                                               ; preds = %19
  tail call void @ERR_clear_error() #27
  br label %54

22:                                               ; preds = %19
  %.not24 = icmp eq ptr %20, null
  br i1 %.not24, label %23, label %54

23:                                               ; preds = %22
  %24 = load ptr, ptr @bio_err, align 8, !tbaa !26
  %25 = select i1 %11, ptr @.str.196, ptr @.str.224
  %26 = tail call ptr @__errno_location() #28
  %27 = load i32, ptr %26, align 4, !tbaa !30
  %28 = tail call ptr @strerror(i32 noundef %27) #27
  %29 = tail call i32 (ptr, ptr, ...) @BIO_printf(ptr noundef %24, ptr noundef nonnull @.str.223, ptr noundef nonnull %25, ptr noundef %28) #27
  br label %52

.tail.thread:                                     ; preds = %sub_0, %.tail
  switch i8 %1, label %30 [
    i8 97, label %31
    i8 114, label %34
    i8 119, label %37
  ]

30:                                               ; preds = %.tail.thread
  tail call void @OPENSSL_die(ptr noundef nonnull @.str.218, ptr noundef nonnull @.str.1, i32 noundef 3091) #30
  unreachable

31:                                               ; preds = %.tail.thread
  %32 = tail call i32 @FMT_istext(i32 noundef %2) #27
  %.not13.i = icmp eq i32 %32, 0
  %33 = select i1 %.not13.i, ptr @.str.220, ptr @.str.219
  br label %modestr.exit

34:                                               ; preds = %.tail.thread
  %35 = tail call i32 @FMT_istext(i32 noundef %2) #27
  %.not12.i = icmp eq i32 %35, 0
  %36 = select i1 %.not12.i, ptr @.str.221, ptr @.str.116
  br label %modestr.exit

37:                                               ; preds = %.tail.thread
  %38 = tail call i32 @FMT_istext(i32 noundef %2) #27
  %.not.i25 = icmp eq i32 %38, 0
  %39 = select i1 %.not.i25, ptr @.str.222, ptr @.str.123
  br label %modestr.exit

modestr.exit:                                     ; preds = %31, %34, %37
  %.0.i = phi ptr [ %39, %37 ], [ %36, %34 ], [ %33, %31 ]
  %40 = tail call ptr @BIO_new_file(ptr noundef nonnull %0, ptr noundef nonnull %.0.i) #27
  %.not = icmp eq i32 %3, 0
  br i1 %.not, label %42, label %41

41:                                               ; preds = %modestr.exit
  tail call void @ERR_clear_error() #27
  br label %54

42:                                               ; preds = %modestr.exit
  %.not22 = icmp eq ptr %40, null
  br i1 %.not22, label %43, label %54

43:                                               ; preds = %42
  %44 = load ptr, ptr @bio_err, align 8, !tbaa !26
  switch i8 %1, label %47 [
    i8 97, label %modeverb.exit
    i8 114, label %45
    i8 119, label %46
  ]

45:                                               ; preds = %43
  br label %modeverb.exit

46:                                               ; preds = %43
  br label %modeverb.exit

47:                                               ; preds = %43
  br label %modeverb.exit

modeverb.exit:                                    ; preds = %43, %45, %46, %47
  %.0.i26 = phi ptr [ @.str.229, %47 ], [ @.str.228, %46 ], [ @.str.227, %45 ], [ @.str.226, %43 ]
  %48 = tail call ptr @__errno_location() #28
  %49 = load i32, ptr %48, align 4, !tbaa !30
  %50 = tail call ptr @strerror(i32 noundef %49) #27
  %51 = tail call i32 (ptr, ptr, ...) @BIO_printf(ptr noundef %44, ptr noundef nonnull @.str.225, ptr noundef nonnull %0, ptr noundef nonnull %.0.i26, ptr noundef %50) #27
  br label %52

52:                                               ; preds = %modeverb.exit, %23
  %53 = load ptr, ptr @bio_err, align 8, !tbaa !26
  tail call void @ERR_print_errors(ptr noundef %53) #27
  br label %54

54:                                               ; preds = %42, %22, %52, %41, %21
  %.0 = phi ptr [ %20, %21 ], [ null, %52 ], [ %40, %41 ], [ %20, %22 ], [ %40, %42 ]
  ret ptr %.0
}